target datalayout = "e-m:e-p270:32:32-p271:32:32-p272:64:64-i64:64-i128:128-f80:128-n8:16:32:64-S128"
target triple = "x86_64-pc-linux-gnu"

%struct.BM3DContext = type { ptr, float, i32, i32, i32, i32, i32, float, float, i32, i32, i32, i32, i32, i32, [4 x i32], [4 x i32], i32, i32, [32 x %struct.SliceContext], %struct.FFFrameSync, i32, ptr, ptr, ptr, ptr }
%struct.SliceContext = type { ptr, ptr, ptr, ptr, ptr, ptr, ptr, ptr, ptr, ptr, ptr, ptr, ptr, ptr, ptr, ptr, ptr, ptr, ptr, [256 x %struct.PosPairCode], i32, ptr }
%struct.PosPairCode = type { double, i32, i32 }
%struct.FFFrameSync = type { ptr, ptr, i32, %struct.AVRational, i64, ptr, ptr, i32, i32, i8, i8, ptr, i32, i32, i32, i32 }
%struct.AVRational = type { i32, i32 }
%struct.PosCode = type { i32, i32 }

; Function Attrs: nounwind uwtable
define internal double @do_block_ssd(ptr noundef %0, ptr noundef %1, ptr noundef %2, i32 noundef %3, i32 noundef %4, i32 noundef %5) #1 {
  %7 = alloca ptr, align 8
  %8 = alloca ptr, align 8
  %9 = alloca ptr, align 8
  %10 = alloca i32, align 4
  %11 = alloca i32, align 4
  %12 = alloca i32, align 4
  %13 = alloca ptr, align 8
  %14 = alloca ptr, align 8
  %15 = alloca i32, align 4
  %16 = alloca double, align 8
  %17 = alloca i32, align 4
  %18 = alloca i32, align 4
  %19 = alloca double, align 8
  store ptr %0, ptr %7, align 8, !tbaa !22
  store ptr %1, ptr %8, align 8, !tbaa !125
  store ptr %2, ptr %9, align 8, !tbaa !91
  store i32 %3, ptr %10, align 4, !tbaa !43
  store i32 %4, ptr %11, align 4, !tbaa !43
  store i32 %5, ptr %12, align 4, !tbaa !43
  call void @llvm.lifetime.start.p0(i64 8, ptr %13) #12
  %20 = load ptr, ptr %9, align 8, !tbaa !91
  %21 = load ptr, ptr %8, align 8, !tbaa !125
  %22 = getelementptr inbounds nuw %struct.PosCode, ptr %21, i32 0, i32 1
  %23 = load i32, ptr %22, align 4, !tbaa !119
  %24 = load i32, ptr %10, align 4, !tbaa !43
  %25 = mul nsw i32 %23, %24
  %26 = sext i32 %25 to i64
  %27 = getelementptr inbounds i8, ptr %20, i64 %26
  %28 = load ptr, ptr %8, align 8, !tbaa !125
  %29 = getelementptr inbounds nuw %struct.PosCode, ptr %28, i32 0, i32 0
  %30 = load i32, ptr %29, align 4, !tbaa !121
  %31 = sext i32 %30 to i64
  %32 = getelementptr inbounds i8, ptr %27, i64 %31
  store ptr %32, ptr %13, align 8, !tbaa !91
  call void @llvm.lifetime.start.p0(i64 8, ptr %14) #12
  %33 = load ptr, ptr %9, align 8, !tbaa !91
  %34 = load i32, ptr %11, align 4, !tbaa !43
  %35 = load i32, ptr %10, align 4, !tbaa !43
  %36 = mul nsw i32 %34, %35
  %37 = sext i32 %36 to i64
  %38 = getelementptr inbounds i8, ptr %33, i64 %37
  %39 = load i32, ptr %12, align 4, !tbaa !43
  %40 = sext i32 %39 to i64
  %41 = getelementptr inbounds i8, ptr %38, i64 %40
  store ptr %41, ptr %14, align 8, !tbaa !91
  call void @llvm.lifetime.start.p0(i64 4, ptr %15) #12
  %42 = load ptr, ptr %7, align 8, !tbaa !22
  %43 = getelementptr inbounds nuw %struct.BM3DContext, ptr %42, i32 0, i32 2
  %44 = load i32, ptr %43, align 4, !tbaa !36
  store i32 %44, ptr %15, align 4, !tbaa !43
  call void @llvm.lifetime.start.p0(i64 8, ptr %16) #12
  store double 0.000000e+00, ptr %16, align 8, !tbaa !128
  call void @llvm.lifetime.start.p0(i64 4, ptr %17) #12
  call void @llvm.lifetime.start.p0(i64 4, ptr %18) #12
  store i32 0, ptr %18, align 4, !tbaa !43
  br label %45

45:                                               ; preds = %85, %6
  %46 = load i32, ptr %18, align 4, !tbaa !43
  %47 = load i32, ptr %15, align 4, !tbaa !43
  %48 = icmp slt i32 %46, %47
  br i1 %48, label %49, label %88

49:                                               ; preds = %45
  store i32 0, ptr %17, align 4, !tbaa !43
  br label %50

50:                                               ; preds = %73, %49
  %51 = load i32, ptr %17, align 4, !tbaa !43
  %52 = load i32, ptr %15, align 4, !tbaa !43
  %53 = icmp slt i32 %51, %52
  br i1 %53, label %54, label %76

54:                                               ; preds = %50
  call void @llvm.lifetime.start.p0(i64 8, ptr %19) #12
  %55 = load ptr, ptr %14, align 8, !tbaa !91
  %56 = load i32, ptr %17, align 4, !tbaa !43
  %57 = sext i32 %56 to i64
  %58 = getelementptr inbounds i8, ptr %55, i64 %57
  %59 = load i8, ptr %58, align 1, !tbaa !207
  %60 = zext i8 %59 to i32
  %61 = load ptr, ptr %13, align 8, !tbaa !91
  %62 = load i32, ptr %17, align 4, !tbaa !43
  %63 = sext i32 %62 to i64
  %64 = getelementptr inbounds i8, ptr %61, i64 %63
  %65 = load i8, ptr %64, align 1, !tbaa !207
  %66 = zext i8 %65 to i32
  %67 = sub nsw i32 %60, %66
  %68 = sitofp i32 %67 to double
  store double %68, ptr %19, align 8, !tbaa !128
  %69 = load double, ptr %19, align 8, !tbaa !128
  %70 = load double, ptr %19, align 8, !tbaa !128
  %71 = load double, ptr %16, align 8, !tbaa !128
  %72 = call nsz double @llvm.fmuladd.f64(double %69, double %70, double %71)
  store double %72, ptr %16, align 8, !tbaa !128
  call void @llvm.lifetime.end.p0(i64 8, ptr %19) #12
  br label %73

73:                                               ; preds = %54
  %74 = load i32, ptr %17, align 4, !tbaa !43
  %75 = add nsw i32 %74, 1
  store i32 %75, ptr %17, align 4, !tbaa !43
  br label %50, !llvm.loop !210

76:                                               ; preds = %50
  %77 = load i32, ptr %10, align 4, !tbaa !43
  %78 = load ptr, ptr %13, align 8, !tbaa !91
  %79 = sext i32 %77 to i64
  %80 = getelementptr inbounds i8, ptr %78, i64 %79
  store ptr %80, ptr %13, align 8, !tbaa !91
  %81 = load i32, ptr %10, align 4, !tbaa !43
  %82 = load ptr, ptr %14, align 8, !tbaa !91
  %83 = sext i32 %81 to i64
  %84 = getelementptr inbounds i8, ptr %82, i64 %83
  store ptr %84, ptr %14, align 8, !tbaa !91
  br label %85

85:                                               ; preds = %76
  %86 = load i32, ptr %18, align 4, !tbaa !43
  %87 = add nsw i32 %86, 1
  store i32 %87, ptr %18, align 4, !tbaa !43
  br label %45, !llvm.loop !211

88:                                               ; preds = %45
  %89 = load double, ptr %16, align 8, !tbaa !128
  call void @llvm.lifetime.end.p0(i64 4, ptr %18) #12
  call void @llvm.lifetime.end.p0(i64 4, ptr %17) #12
  call void @llvm.lifetime.end.p0(i64 8, ptr %16) #12
  call void @llvm.lifetime.end.p0(i64 4, ptr %15) #12
  call void @llvm.lifetime.end.p0(i64 8, ptr %14) #12
  call void @llvm.lifetime.end.p0(i64 8, ptr %13) #12
  ret double %89
}