; Function Attrs: nofree norecurse nosync nounwind memory(argmem: read) uwtable
define internal double @do_block_ssd(ptr noundef readonly captures(none) %0, ptr noundef readonly captures(none) %1, ptr noundef readonly captures(none) %2, i32 noundef %3, i32 noundef %4, i32 noundef %5) #12 {
  %7 = getelementptr inbounds nuw i8, ptr %0, i64 12
  %8 = load i32, ptr %7, align 4, !tbaa !33
  %9 = icmp sgt i32 %8, 0
  br i1 %9, label %.preheader.lr.ph, label %._crit_edge37

.preheader.lr.ph:                                 ; preds = %6
  %10 = mul nsw i32 %4, %3
  %11 = sext i32 %10 to i64
  %12 = getelementptr inbounds i8, ptr %2, i64 %11
  %13 = sext i32 %5 to i64
  %14 = getelementptr inbounds i8, ptr %12, i64 %13
  %15 = getelementptr inbounds nuw i8, ptr %1, i64 4
  %16 = load i32, ptr %15, align 4, !tbaa !107
  %17 = mul nsw i32 %16, %3
  %18 = sext i32 %17 to i64
  %19 = getelementptr inbounds i8, ptr %2, i64 %18
  %20 = load i32, ptr %1, align 4, !tbaa !109
  %21 = sext i32 %20 to i64
  %22 = getelementptr inbounds i8, ptr %19, i64 %21
  %23 = sext i32 %3 to i64
  %wide.trip.count = zext nneg i32 %8 to i64
  br label %.preheader.us

.preheader.us:                                    ; preds = %._crit_edge.us, %.preheader.lr.ph
  %.036.us = phi ptr [ %22, %.preheader.lr.ph ], [ %34, %._crit_edge.us ]
  %.02635.us = phi i32 [ 0, %.preheader.lr.ph ], [ %36, %._crit_edge.us ]
  %.02834.us = phi double [ 0.000000e+00, %.preheader.lr.ph ], [ %33, %._crit_edge.us ]
  %.02933.us = phi ptr [ %14, %.preheader.lr.ph ], [ %35, %._crit_edge.us ]
  br label %24

24:                                               ; preds = %.preheader.us, %24
  %indvars.iv = phi i64 [ 0, %.preheader.us ], [ %indvars.iv.next, %24 ]
  %.131.us = phi double [ %.02834.us, %.preheader.us ], [ %33, %24 ]
  %25 = getelementptr inbounds nuw i8, ptr %.02933.us, i64 %indvars.iv
  %26 = load i8, ptr %25, align 1, !tbaa !183
  %27 = zext i8 %26 to i32
  %28 = getelementptr inbounds nuw i8, ptr %.036.us, i64 %indvars.iv
  %29 = load i8, ptr %28, align 1, !tbaa !183
  %30 = zext i8 %29 to i32
  %31 = sub nsw i32 %27, %30
  %32 = sitofp i32 %31 to double
  %33 = tail call nsz double @llvm.fmuladd.f64(double %32, double %32, double %.131.us)
  %indvars.iv.next = add nuw nsw i64 %indvars.iv, 1
  %exitcond.not = icmp eq i64 %indvars.iv.next, %wide.trip.count
  br i1 %exitcond.not, label %._crit_edge.us, label %24, !llvm.loop !186

._crit_edge.us:                                   ; preds = %24
  %34 = getelementptr inbounds i8, ptr %.036.us, i64 %23
  %35 = getelementptr inbounds i8, ptr %.02933.us, i64 %23
  %36 = add nuw nsw i32 %.02635.us, 1
  %exitcond40.not = icmp eq i32 %36, %8
  br i1 %exitcond40.not, label %._crit_edge37, label %.preheader.us, !llvm.loop !187

._crit_edge37:                                    ; preds = %._crit_edge.us, %6
  %.028.lcssa = phi double [ 0.000000e+00, %6 ], [ %33, %._crit_edge.us ]
  ret double %.028.lcssa
}